; ModuleID = '45/1878.c'
source_filename = "45/1878.c"
target datalayout = "e-m:e-p270:32:32-p271:32:32-p272:64:64-i64:64-f80:128-n8:16:32:64-S128"
target triple = "x86_64-pc-linux-gnu"

@.str = private unnamed_addr constant [6 x i8] c"%s %s\00", align 1
@.str.1 = private unnamed_addr constant [3 x i8] c"%d\00", align 1

; Function Attrs: noinline nounwind uwtable
define dso_local i32 @main() #0 {
  %1 = alloca i32, align 4
  %2 = alloca [50 x i8], align 16
  %3 = alloca [50 x i8], align 16
  %4 = alloca [200 x i8], align 16
  %5 = alloca [100 x i8], align 16
  %6 = alloca i32, align 4
  %7 = alloca i32, align 4
  %8 = alloca i32, align 4
  %9 = alloca i32, align 4
  %10 = alloca i32, align 4
  %11 = alloca i32, align 4
  %12 = alloca i32, align 4
  %13 = alloca i32, align 4
  %14 = alloca i32, align 4
  store i32 0, i32* %1, align 4
  store i32 0, i32* %6, align 4
  store i32 0, i32* %9, align 4
  store i32 1, i32* %10, align 4
  store i32 0, i32* %12, align 4
  store i32 0, i32* %14, align 4
  %15 = getelementptr inbounds [50 x i8], [50 x i8]* %2, i64 0, i64 0
  %16 = getelementptr inbounds [50 x i8], [50 x i8]* %3, i64 0, i64 0
  %17 = call i32 (i8*, ...) @__isoc99_scanf(i8* getelementptr inbounds ([6 x i8], [6 x i8]* @.str, i64 0, i64 0), i8* %15, i8* %16)
  %18 = getelementptr inbounds [50 x i8], [50 x i8]* %2, i64 0, i64 0
  %19 = call i64 @strlen(i8* %18) #3
  %20 = trunc i64 %19 to i32
  store i32 %20, i32* %7, align 4
  %21 = getelementptr inbounds [50 x i8], [50 x i8]* %3, i64 0, i64 0
  %22 = call i64 @strlen(i8* %21) #3
  %23 = trunc i64 %22 to i32
  store i32 %23, i32* %8, align 4
  store i32 0, i32* %6, align 4
  br label %24

24:                                               ; preds = %70, %0
  %25 = load i32, i32* %6, align 4
  %26 = load i32, i32* %8, align 4
  %27 = icmp slt i32 %25, %26
  br i1 %27, label %28, label %73

28:                                               ; preds = %24
  %29 = load i32, i32* %6, align 4
  %30 = sext i32 %29 to i64
  %31 = getelementptr inbounds [50 x i8], [50 x i8]* %3, i64 0, i64 %30
  %32 = load i8, i8* %31, align 1
  %33 = sext i8 %32 to i32
  %34 = getelementptr inbounds [50 x i8], [50 x i8]* %2, i64 0, i64 0
  %35 = load i8, i8* %34, align 16
  %36 = sext i8 %35 to i32
  %37 = icmp eq i32 %33, %36
  br i1 %37, label %38, label %69

38:                                               ; preds = %28
  %39 = load i32, i32* %6, align 4
  store i32 %39, i32* %11, align 4
  store i32 0, i32* %9, align 4
  br label %40

40:                                               ; preds = %60, %38
  %41 = load i32, i32* %9, align 4
  %42 = load i32, i32* %7, align 4
  %43 = icmp slt i32 %41, %42
  br i1 %43, label %44, label %63

44:                                               ; preds = %40
  %45 = load i32, i32* %9, align 4
  %46 = sext i32 %45 to i64
  %47 = getelementptr inbounds [50 x i8], [50 x i8]* %2, i64 0, i64 %46
  %48 = load i8, i8* %47, align 1
  %49 = sext i8 %48 to i32
  %50 = load i32, i32* %6, align 4
  %51 = sext i32 %50 to i64
  %52 = getelementptr inbounds [50 x i8], [50 x i8]* %3, i64 0, i64 %51
  %53 = load i8, i8* %52, align 1
  %54 = sext i8 %53 to i32
  %55 = icmp ne i32 %49, %54
  br i1 %55, label %56, label %57

56:                                               ; preds = %44
  store i32 0, i32* %10, align 4
  br label %63

57:                                               ; preds = %44
  %58 = load i32, i32* %6, align 4
  %59 = add nsw i32 %58, 1
  store i32 %59, i32* %6, align 4
  br label %60

60:                                               ; preds = %57
  %61 = load i32, i32* %9, align 4
  %62 = add nsw i32 %61, 1
  store i32 %62, i32* %9, align 4
  br label %40

63:                                               ; preds = %56, %40
  %64 = load i32, i32* %10, align 4
  %65 = icmp eq i32 %64, 1
  br i1 %65, label %66, label %68

66:                                               ; preds = %63
  %67 = load i32, i32* %11, align 4
  store i32 %67, i32* %12, align 4
  br label %68

68:                                               ; preds = %66, %63
  br label %69

69:                                               ; preds = %68, %28
  br label %70

70:                                               ; preds = %69
  %71 = load i32, i32* %6, align 4
  %72 = add nsw i32 %71, 1
  store i32 %72, i32* %6, align 4
  br label %24

73:                                               ; preds = %24
  %74 = load i32, i32* %10, align 4
  %75 = icmp ne i32 %74, 0
  br i1 %75, label %76, label %79

76:                                               ; preds = %73
  %77 = load i32, i32* %12, align 4
  %78 = call i32 (i8*, ...) @printf(i8* getelementptr inbounds ([3 x i8], [3 x i8]* @.str.1, i64 0, i64 0), i32 %77)
  br label %79

79:                                               ; preds = %76, %73
  ret i32 0
}

declare dso_local i32 @__isoc99_scanf(i8*, ...) #1

; Function Attrs: nounwind readonly
declare dso_local i64 @strlen(i8*) #2

declare dso_local i32 @printf(i8*, ...) #1


!llvm.module.flags = !{!0}
!llvm.ident = !{!1}

!0 = !{i32 1, !"wchar_size", i32 4}
!1 = !{!"clang version 10.0.0-4ubuntu1 "}
